; Function Attrs: nounwind uwtable
define ptr @l_Lake_foldlUtf8M___rarg___lambda__2___boxed(ptr noundef %0, ptr noundef %1, ptr noundef %2, ptr noundef %3, ptr noundef %4, ptr noundef %5, ptr noundef %6) #1 {
  %8 = ptrtoint ptr %0 to i64
  %9 = and i64 %8, 1
  %.not = icmp eq i64 %9, 0
  br i1 %.not, label %10, label %lean_dec.exit14

10:                                               ; preds = %7
  %11 = load i32, ptr %0, align 4, !tbaa !4
  %12 = icmp sgt i32 %11, 1
  br i1 %12, label %13, label %15, !prof !9

13:                                               ; preds = %10
  %14 = add nsw i32 %11, -1
  store i32 %14, ptr %0, align 4, !tbaa !4
  br label %lean_dec.exit14

15:                                               ; preds = %10
  %.not.i = icmp eq i32 %11, 0
  br i1 %.not.i, label %lean_dec.exit14, label %16

16:                                               ; preds = %15
  tail call void @lean_dec_ref_cold(ptr noundef nonnull %0) #7
  br label %lean_dec.exit14

lean_dec.exit14:                                  ; preds = %16, %15, %13, %7
  %17 = ptrtoint ptr %1 to i64
  %18 = and i64 %17, 1
  %.not19 = icmp eq i64 %18, 0
  br i1 %.not19, label %19, label %lean_dec.exit13

19:                                               ; preds = %lean_dec.exit14
  %20 = load i32, ptr %1, align 4, !tbaa !4
  %21 = icmp sgt i32 %20, 1
  br i1 %21, label %22, label %24, !prof !9

22:                                               ; preds = %19
  %23 = add nsw i32 %20, -1
  store i32 %23, ptr %1, align 4, !tbaa !4
  br label %lean_dec.exit13

24:                                               ; preds = %19
  %.not.i15 = icmp eq i32 %20, 0
  br i1 %.not.i15, label %lean_dec.exit13, label %25

25:                                               ; preds = %24
  tail call void @lean_dec_ref_cold(ptr noundef nonnull %1) #7
  br label %lean_dec.exit13

lean_dec.exit13:                                  ; preds = %25, %24, %22, %lean_dec.exit14
  %26 = ptrtoint ptr %2 to i64
  %27 = and i64 %26, 1
  %.not20 = icmp eq i64 %27, 0
  br i1 %.not20, label %28, label %lean_dec.exit

28:                                               ; preds = %lean_dec.exit13
  %29 = load i32, ptr %2, align 4, !tbaa !4
  %30 = icmp sgt i32 %29, 1
  br i1 %30, label %31, label %33, !prof !9

31:                                               ; preds = %28
  %32 = add nsw i32 %29, -1
  store i32 %32, ptr %2, align 4, !tbaa !4
  br label %lean_dec.exit

33:                                               ; preds = %28
  %.not.i17 = icmp eq i32 %29, 0
  br i1 %.not.i17, label %lean_dec.exit, label %34

34:                                               ; preds = %33
  tail call void @lean_dec_ref_cold(ptr noundef nonnull %2) #7
  br label %lean_dec.exit

lean_dec.exit:                                    ; preds = %34, %33, %31, %lean_dec.exit13
  %35 = and i64 %17, %8
  %36 = or i64 %35, %26
  %37 = and i64 %36, 510
  %38 = or disjoint i64 %37, 1
  %39 = inttoptr i64 %38 to ptr
  %40 = tail call ptr @lean_apply_2(ptr noundef %3, ptr noundef %6, ptr noundef nonnull %39) #7
  tail call void @lean_inc_heartbeat() #7
  %41 = tail call noalias ptr @mi_malloc_small(i64 noundef 32) #7
  %42 = icmp eq ptr %41, null
  br i1 %42, label %43, label %l_Lake_foldlUtf8M___rarg___lambda__2.exit

43:                                               ; preds = %lean_dec.exit
  tail call void @lean_internal_panic_out_of_memory() #8
  unreachable

l_Lake_foldlUtf8M___rarg___lambda__2.exit:        ; preds = %lean_dec.exit
  %44 = getelementptr inbounds nuw i8, ptr %41, i64 4
  store i32 1, ptr %41, align 4, !tbaa !4
  store i32 -184549344, ptr %44, align 4
  %45 = getelementptr inbounds nuw i8, ptr %41, i64 8
  store ptr @l_Lake_foldlUtf8M___rarg___lambda__1, ptr %45, align 8, !tbaa !10
  %46 = getelementptr inbounds nuw i8, ptr %41, i64 16
  store i16 2, ptr %46, align 8, !tbaa !14
  %47 = getelementptr inbounds nuw i8, ptr %41, i64 18
  store i16 1, ptr %47, align 2, !tbaa !14
  %48 = getelementptr inbounds nuw i8, ptr %41, i64 24
  store ptr %4, ptr %48, align 8, !tbaa !10
  %49 = tail call ptr @lean_apply_4(ptr noundef %5, ptr noundef nonnull inttoptr (i64 1 to ptr), ptr noundef nonnull inttoptr (i64 1 to ptr), ptr noundef %40, ptr noundef nonnull %41) #7
  ret ptr %49
}